Certificate:
    Data:
        Version: 3 (0x2)
        Serial Number: 2 (0x2)
    Signature Algorithm: sha256WithRSAEncryption
        Issuer: C=CN, ST=Shanghai, L=city, O=UCSD, CN=CA
        Validity
            Not Before: Jul 23 04:06:24 2018 GMT
            Not After : Jul 23 04:06:24 2019 GMT
        Subject: C=CN, ST=Shanghai, O=UCSD, CN=Yiming
        Subject Public Key Info:
            Public Key Algorithm: rsaEncryption
                Public-Key: (1024 bit)
                Modulus:
                    00:bb:68:a5:48:3f:bb:05:2a:2e:6c:23:c4:f3:85:
                    a2:72:bc:10:57:81:c6:59:28:79:e8:1a:7b:47:3e:
                    4e:48:8c:73:ec:7e:46:58:5d:56:c5:74:0f:ab:f8:
                    d0:42:32:60:86:3e:01:d8:8b:b4:7c:f0:dc:41:af:
                    36:7b:d4:5c:8c:07:a0:2c:90:c3:62:dd:f5:79:53:
                    a5:f9:29:f4:d1:90:8d:88:08:73:f9:24:d3:bc:3d:
                    9b:49:1a:04:84:9e:40:15:40:6b:b4:7a:57:a2:30:
                    45:70:f8:98:6a:59:58:f1:cf:13:2a:0a:54:6d:2f:
                    4c:13:76:ac:80:34:6d:0b:71
                Exponent: 65537 (0x10001)
        X509v3 extensions:
            X509v3 Basic Constraints: 
                CA:FALSE
            Netscape Comment: 
                OpenSSL Generated Certificate
            X509v3 Subject Key Identifier: 
                CF:6E:93:D9:5D:A7:0D:AC:E5:FA:27:FB:D4:EF:F3:14:33:2E:9F:7B
            X509v3 Authority Key Identifier: 
                keyid:F8:1B:87:EF:C5:1A:47:26:43:F1:15:6A:C1:D0:DE:BC:24:5A:1C:13

    Signature Algorithm: sha256WithRSAEncryption
         0d:29:ff:ab:e1:91:a3:4e:1c:64:87:ea:5c:88:30:a9:52:57:
         ab:49:d3:da:6c:e4:bd:23:9d:08:63:69:5a:2f:1b:31:24:e2:
         ff:d7:92:d6:4f:8f:3d:b7:9a:e6:7d:72:b8:b9:48:2e:e3:78:
         1f:1a:ef:0d:4c:52:b1:0b:35:9a:8f:05:de:a6:a2:8c:34:37:
         df:31:a3:63:96:a3:1a:80:c2:4b:4b:1f:d1:bc:a8:a5:b8:d4:
         33:fd:ac:99:73:09:55:0e:85:0f:95:9b:81:6a:8a:a1:2f:83:
         d5:48:bc:37:3d:9e:48:dc:7f:9e:be:61:d3:65:b2:e5:58:ef:
         c2:c9:b6:be:d9:d3:41:b8:97:98:dd:07:d7:ae:5c:09:86:a2:
         0f:be:56:3b:1c:21:39:f5:08:16:aa:29:c7:8f:f9:0a:32:16:
         34:56:a0:3e:26:2e:3e:08:8e:0b:8c:6d:15:fb:9a:28:d8:3e:
         b7:9b:90:30:c5:3e:bc:57:49:87:d4:4c:4a:b2:96:68:70:06:
         d4:80:82:f2:33:bd:de:9e:e4:e7:34:6d:02:02:68:df:cb:d3:
         f0:a8:ce:40:3d:b9:6d:f8:63:22:52:28:2d:d9:c4:cb:cc:f6:
         16:e6:d1:4a:10:f8:1d:a5:43:9b:cb:9f:5c:d5:56:f2:95:2a:
         22:80:23:88
-----BEGIN CERTIFICATE-----
MIIC/TCCAeWgAwIBAgIBAjANBgkqhkiG9w0BAQsFADBLMQswCQYDVQQGEwJDTjER
MA8GA1UECAwIU2hhbmdoYWkxDTALBgNVBAcMBGNpdHkxDTALBgNVBAoMBFVDU0Qx
CzAJBgNVBAMMAkNBMB4XDTE4MDcyMzA0MDYyNFoXDTE5MDcyMzA0MDYyNFowQDEL
MAkGA1UEBhMCQ04xETAPBgNVBAgMCFNoYW5naGFpMQ0wCwYDVQQKDARVQ1NEMQ8w
DQYDVQQDDAZZaW1pbmcwgZ8wDQYJKoZIhvcNAQEBBQADgY0AMIGJAoGBALtopUg/
uwUqLmwjxPOFonK8EFeBxlkoeegae0c+TkiMc+x+RlhdVsV0D6v40EIyYIY+AdiL
tHzw3EGvNnvUXIwHoCyQw2Ld9XlTpfkp9NGQjYgIc/kk07w9m0kaBISeQBVAa7R6
V6IwRXD4mGpZWPHPEyoKVG0vTBN2rIA0bQtxAgMBAAGjezB5MAkGA1UdEwQCMAAw
LAYJYIZIAYb4QgENBB8WHU9wZW5TU0wgR2VuZXJhdGVkIENlcnRpZmljYXRlMB0G
A1UdDgQWBBTPbpPZXacNrOX6J/vU7/MUMy6fezAfBgNVHSMEGDAWgBT4G4fvxRpH
JkPxFWrB0N68JFocEzANBgkqhkiG9w0BAQsFAAOCAQEADSn/q+GRo04cZIfqXIgw
qVJXq0nT2mzkvSOdCGNpWi8bMSTi/9eS1k+PPbea5n1yuLlILuN4HxrvDUxSsQs1
mo8F3qaijDQ33zGjY5ajGoDCS0sf0byopbjUM/2smXMJVQ6FD5WbgWqKoS+D1Ui8
Nz2eSNx/nr5h02Wy5Vjvwsm2vtnTQbiXmN0H165cCYaiD75WOxwhOfUIFqopx4/5
CjIWNFagPiYuPgiOC4xtFfuaKNg+t5uQMMU+vFdJh9RMSrKWaHAG1ICC8jO93p7k
5zRtAgJo38vT8KjOQD25bfhjIlIoLdnEy8z2FubRShD4HaVDm8ufXNVW8pUqIoAj
iA==
-----END CERTIFICATE-----
